target datalayout = "e-m:e-p270:32:32-p271:32:32-p272:64:64-i64:64-i128:128-f80:128-n8:16:32:64-S128"
target triple = "x86_64-pc-linux-gnu"

%struct.dt_control_crawler_gui_t = type { ptr, ptr, ptr, ptr, ptr }
%struct._GtkTreeIter = type { i32, ptr, ptr, ptr }

; Function Attrs: nounwind uwtable
define internal void @_select_invert_callback(ptr noundef %0, ptr noundef %1) #0 {
  %3 = alloca ptr, align 8
  %4 = alloca ptr, align 8
  %5 = alloca ptr, align 8
  %6 = alloca ptr, align 8
  %7 = alloca %struct._GtkTreeIter, align 8
  %8 = alloca i32, align 4
  store ptr %0, ptr %3, align 8, !tbaa !73
  store ptr %1, ptr %4, align 8, !tbaa !75
  call void @llvm.lifetime.start.p0(i64 8, ptr %5) #11
  %9 = load ptr, ptr %4, align 8, !tbaa !75
  store ptr %9, ptr %5, align 8, !tbaa !76
  call void @llvm.lifetime.start.p0(i64 8, ptr %6) #11
  %10 = load ptr, ptr %5, align 8, !tbaa !76
  %11 = getelementptr inbounds nuw %struct.dt_control_crawler_gui_t, ptr %10, i32 0, i32 0
  %12 = load ptr, ptr %11, align 8, !tbaa !78
  %13 = call ptr @gtk_tree_view_get_selection(ptr noundef %12)
  store ptr %13, ptr %6, align 8, !tbaa !83
  call void @llvm.lifetime.start.p0(i64 32, ptr %7) #11
  call void @llvm.lifetime.start.p0(i64 4, ptr %8) #11
  %14 = load ptr, ptr %5, align 8, !tbaa !76
  %15 = getelementptr inbounds nuw %struct.dt_control_crawler_gui_t, ptr %14, i32 0, i32 1
  %16 = load ptr, ptr %15, align 8, !tbaa !92
  %17 = call i32 @gtk_tree_model_get_iter_first(ptr noundef %16, ptr noundef %7)
  store i32 %17, ptr %8, align 4, !tbaa !11
  br label %18

18:                                               ; preds = %29, %2
  %19 = load i32, ptr %8, align 4, !tbaa !11
  %20 = icmp ne i32 %19, 0
  br i1 %20, label %21, label %34

21:                                               ; preds = %18
  %22 = load ptr, ptr %6, align 8, !tbaa !83
  %23 = call i32 @gtk_tree_selection_iter_is_selected(ptr noundef %22, ptr noundef %7)
  %24 = icmp ne i32 %23, 0
  br i1 %24, label %25, label %27

25:                                               ; preds = %21
  %26 = load ptr, ptr %6, align 8, !tbaa !83
  call void @gtk_tree_selection_unselect_iter(ptr noundef %26, ptr noundef %7)
  br label %29

27:                                               ; preds = %21
  %28 = load ptr, ptr %6, align 8, !tbaa !83
  call void @gtk_tree_selection_select_iter(ptr noundef %28, ptr noundef %7)
  br label %29

29:                                               ; preds = %27, %25
  %30 = load ptr, ptr %5, align 8, !tbaa !76
  %31 = getelementptr inbounds nuw %struct.dt_control_crawler_gui_t, ptr %30, i32 0, i32 1
  %32 = load ptr, ptr %31, align 8, !tbaa !92
  %33 = call i32 @gtk_tree_model_iter_next(ptr noundef %32, ptr noundef %7)
  store i32 %33, ptr %8, align 4, !tbaa !11
  br label %18

34:                                               ; preds = %18
  call void @llvm.lifetime.end.p0(i64 4, ptr %8) #11
  call void @llvm.lifetime.end.p0(i64 32, ptr %7) #11
  call void @llvm.lifetime.end.p0(i64 8, ptr %6) #11
  call void @llvm.lifetime.end.p0(i64 8, ptr %5) #11
  ret void
}