; Function Attrs: nounwind uwtable
define internal void @_select_invert_callback(ptr readnone captures(none) %0, ptr noundef readonly captures(none) %1) #0 {
  %3 = alloca %struct._GtkTreeIter, align 8
  %4 = load ptr, ptr %1, align 8, !tbaa !66
  %5 = tail call ptr @gtk_tree_view_get_selection(ptr noundef %4) #13
  call void @llvm.lifetime.start.p0(i64 32, ptr nonnull %3) #13
  %6 = getelementptr inbounds nuw i8, ptr %1, i64 8
  %7 = load ptr, ptr %6, align 8, !tbaa !73
  %8 = call i32 @gtk_tree_model_get_iter_first(ptr noundef %7, ptr noundef nonnull %3) #13
  %.not8 = icmp eq i32 %8, 0
  br i1 %.not8, label %._crit_edge, label %.lr.ph

.lr.ph:                                           ; preds = %2, %12
  %9 = call i32 @gtk_tree_selection_iter_is_selected(ptr noundef %5, ptr noundef nonnull %3) #13
  %.not7 = icmp eq i32 %9, 0
  br i1 %.not7, label %11, label %10

10:                                               ; preds = %.lr.ph
  call void @gtk_tree_selection_unselect_iter(ptr noundef %5, ptr noundef nonnull %3) #13
  br label %12

11:                                               ; preds = %.lr.ph
  call void @gtk_tree_selection_select_iter(ptr noundef %5, ptr noundef nonnull %3) #13
  br label %12

12:                                               ; preds = %11, %10
  %13 = load ptr, ptr %6, align 8, !tbaa !73
  %14 = call i32 @gtk_tree_model_iter_next(ptr noundef %13, ptr noundef nonnull %3) #13
  %.not = icmp eq i32 %14, 0
  br i1 %.not, label %._crit_edge, label %.lr.ph

._crit_edge:                                      ; preds = %12, %2
  call void @llvm.lifetime.end.p0(i64 32, ptr nonnull %3) #13
  ret void
}